(dp0
S'NODE_10015_length_1044_cov_4.05474_ID_26901864'
p1
(lp2
S'PROKKA_00033'
p3
asS'NODE_10062_length_1039_cov_3.61395_ID_31622920'
p4
(lp5
S'PROKKA_00122'
p6
asS'NODE_10026_length_1043_cov_3.98924_ID_31682990'
p7
(lp8
S'PROKKA_00058'
p9
asS'NODE_1002_length_9402_cov_79.1651_ID_31608120'
p10
(lp11
S'PROKKA_00066'
p12
aS'PROKKA_00065'
p13
aS'PROKKA_00064'
p14
aS'PROKKA_00063'
p15
asS'NODE_10048_length_1041_cov_4.72059_ID_31935272'
p16
(lp17
S'PROKKA_00088'
p18
asS'NODE_10050_length_1041_cov_8296.23_ID_32247470'
p19
(lp20
S'PROKKA_00101'
p21
asS'NODE_10082_length_1037_cov_4.03445_ID_31924074'
p22
(lp23
S'PROKKA_00156'
p24
asS'NODE_10018_length_1044_cov_3.39492_ID_7961854'
p25
(lp26
S'PROKKA_00036'
p27
aS'PROKKA_00037'
p28
asS'NODE_10068_length_1038_cov_3.6175_ID_3052116'
p29
(lp30
S'PROKKA_00131'
p31
aS'PROKKA_00130'
p32
asS'NODE_1004_length_9383_cov_8.03311_ID_32289868'
p33
(lp34
S'PROKKA_00100'
p35
aS'PROKKA_00098'
p36
aS'PROKKA_00099'
p37
aS'PROKKA_00096'
p38
aS'PROKKA_00097'
p39
aS'PROKKA_00094'
p40
aS'PROKKA_00095'
p41
aS'PROKKA_00092'
p42
aS'PROKKA_00093'
p43
aS'PROKKA_00090'
p44
aS'PROKKA_00091'
p45
asS'NODE_10045_length_1042_cov_10512.1_ID_32385568'
p46
(lp47
S'PROKKA_00085'
p48
asS'NODE_10056_length_1040_cov_3.80569_ID_17380774'
p49
(lp50
S'PROKKA_00108'
p51
asS'NODE_10022_length_1044_cov_3.6696_ID_16040412'
p52
(lp53
S'PROKKA_00053'
p54
asS'NODE_10066_length_1039_cov_4245.8_ID_31764582'
p55
(lp56
S'PROKKA_00127'
p57
asS'NODE_10064_length_1039_cov_3.66208_ID_1891288'
p58
(lp59
S'PROKKA_00124'
p60
asS'NODE_10051_length_1040_cov_5.50932_ID_17748052'
p61
(lp62
S'PROKKA_00102'
p63
asS'NODE_10012_length_1045_cov_7708.03_ID_32192492'
p64
(lp65
S'PROKKA_00029'
p66
aS'PROKKA_00028'
p67
asS'NODE_10023_length_1043_cov_2.40802_ID_17764480'
p68
(lp69
S'PROKKA_00054'
p70
asS'NODE_10033_length_1042_cov_3.99021_ID_25456248'
p71
(lp72
S'PROKKA_00068'
p73
asS'NODE_10010_length_1045_cov_4.86328_ID_18446074'
p74
(lp75
S'PROKKA_00025'
p76
aS'PROKKA_00024'
p77
asS'NODE_10019_length_1044_cov_2.51222_ID_3655036'
p78
(lp79
S'PROKKA_00038'
p80
aS'PROKKA_00039'
p81
asS'NODE_10006_length_1045_cov_2.83301_ID_30214354'
p82
(lp83
S'PROKKA_00008'
p84
asS'NODE_10040_length_1042_cov_7.12243_ID_32253960'
p85
(lp86
S'PROKKA_00081'
p87
asS'NODE_10084_length_1037_cov_6.95079_ID_32347130'
p88
(lp89
S'PROKKA_00158'
p90
asS'NODE_10005_length_1045_cov_3.54395_ID_24012690'
p91
(lp92
S'PROKKA_00007'
p93
asS'NODE_10009_length_1045_cov_4.27148_ID_17416000'
p94
(lp95
S'PROKKA_00012'
p96
asS'NODE_10046_length_1041_cov_16.2363_ID_21582040'
p97
(lp98
S'PROKKA_00086'
p99
asS'NODE_10089_length_1036_cov_2.73596_ID_22674832'
p100
(lp101
S'PROKKA_00162'
p102
aS'PROKKA_00163'
p103
asS'NODE_10037_length_1042_cov_4.73262_ID_31956354'
p104
(lp105
S'PROKKA_00072'
p106
asS'NODE_10036_length_1042_cov_6.99706_ID_31944712'
p107
(lp108
S'PROKKA_00071'
p109
asS'NODE_10060_length_1039_cov_4.06287_ID_17714136'
p110
(lp111
S'PROKKA_00119'
p112
aS'PROKKA_00118'
p113
asS'NODE_10079_length_1037_cov_3.54331_ID_26198042'
p114
(lp115
S'PROKKA_00146'
p116
asS'NODE_1003_length_9389_cov_13.8739_ID_22149368'
p117
(lp118
S'PROKKA_00074'
p119
aS'PROKKA_00075'
p120
aS'PROKKA_00076'
p121
aS'PROKKA_00077'
p122
aS'PROKKA_00078'
p123
aS'PROKKA_00079'
p124
aS'PROKKA_00080'
p125
asS'NODE_10038_length_1042_cov_7.71988_ID_32266396'
p126
(lp127
S'PROKKA_00073'
p128
asS'NODE_10049_length_1041_cov_3.26176_ID_32390674'
p129
(lp130
S'PROKKA_00089'
p131
asS'NODE_10017_length_1044_cov_4.65689_ID_17732760'
p132
(lp133
S'PROKKA_00035'
p134
asS'NODE_1000_length_9406_cov_5.90847_ID_30197270'
p135
(lp136
S'PROKKA_00023'
p137
aS'PROKKA_00022'
p138
aS'PROKKA_00021'
p139
aS'PROKKA_00020'
p140
aS'PROKKA_00016'
p141
aS'PROKKA_00017'
p142
aS'PROKKA_00014'
p143
aS'PROKKA_00015'
p144
aS'PROKKA_00013'
p145
aS'PROKKA_00018'
p146
aS'PROKKA_00019'
p147
asS'NODE_10011_length_1045_cov_4991.81_ID_32192492'
p148
(lp149
S'PROKKA_00027'
p150
aS'PROKKA_00026'
p151
asS'NODE_10053_length_1040_cov_1.84396_ID_27232864'
p152
(lp153
S'PROKKA_00104'
p154
asS'NODE_10041_length_1042_cov_4.33105_ID_31951452'
p155
(lp156
S'PROKKA_00082'
p157
asS'NODE_10069_length_1038_cov_3.14749_ID_17547888'
p158
(lp159
S'PROKKA_00132'
p160
asS'NODE_10035_length_1042_cov_2.50735_ID_27033596'
p161
(lp162
S'PROKKA_00070'
p163
asS'NODE_10054_length_1040_cov_4.37193_ID_32251546'
p164
(lp165
S'PROKKA_00105'
p166
asS'NODE_1001_length_9403_cov_6.17598_ID_32345614'
p167
(lp168
S'PROKKA_00050'
p169
aS'PROKKA_00049'
p170
aS'PROKKA_00048'
p171
aS'PROKKA_00045'
p172
aS'PROKKA_00044'
p173
aS'PROKKA_00047'
p174
aS'PROKKA_00046'
p175
aS'PROKKA_00041'
p176
aS'PROKKA_00040'
p177
aS'PROKKA_00043'
p178
aS'PROKKA_00042'
p179
asS'NODE_10044_length_1042_cov_3326.11_ID_31667580'
p180
(lp181
S'PROKKA_00084'
p182
asS'NODE_10028_length_1043_cov_4.74364_ID_3441706'
p183
(lp184
S'PROKKA_00060'
p185
aS'PROKKA_00059'
p186
asS'NODE_10002_length_1045_cov_4.6709_ID_3526058'
p187
(lp188
S'PROKKA_00003'
p189
asS'NODE_10090_length_1036_cov_2.61478_ID_31832778'
p190
(lp191
S'PROKKA_00172'
p192
asS'NODE_10029_length_1043_cov_3462.69_ID_32333760'
p193
(lp194
S'PROKKA_00062'
p195
aS'PROKKA_00061'
p196
asS'NODE_10007_length_1045_cov_2.61719_ID_31771990'
p197
(lp198
S'PROKKA_00010'
p199
aS'PROKKA_00009'
p200
asS'NODE_10067_length_1039_cov_6634.89_ID_32309532'
p201
(lp202
S'PROKKA_00128'
p203
aS'PROKKA_00129'
p204
asS'NODE_10003_length_1045_cov_2.47852_ID_17744974'
p205
(lp206
S'PROKKA_00005'
p207
aS'PROKKA_00004'
p208
asS'NODE_10047_length_1041_cov_3.52941_ID_22809822'
p209
(lp210
S'PROKKA_00087'
p211
asS'NODE_10080_length_1037_cov_4.5561_ID_29829356'
p212
(lp213
S'PROKKA_00154'
p214
asS'NODE_10025_length_1043_cov_3.71135_ID_31670126'
p215
(lp216
S'PROKKA_00056'
p217
aS'PROKKA_00057'
p218
asS'NODE_1008_length_9372_cov_4.56475_ID_31614648'
p219
(lp220
S'PROKKA_00171'
p221
aS'PROKKA_00170'
p222
aS'PROKKA_00169'
p223
aS'PROKKA_00168'
p224
aS'PROKKA_00166'
p225
aS'PROKKA_00167'
p226
aS'PROKKA_00164'
p227
aS'PROKKA_00165'
p228
asS'NODE_1005_length_9378_cov_74.322_ID_31385994'
p229
(lp230
S'PROKKA_00113'
p231
aS'PROKKA_00117'
p232
aS'PROKKA_00116'
p233
aS'PROKKA_00115'
p234
aS'PROKKA_00114'
p235
asS'NODE_10091_length_1036_cov_2.81576_ID_31979742'
p236
(lp237
S'PROKKA_00173'
p238
asS'NODE_10061_length_1039_cov_3.90766_ID_26765062'
p239
(lp240
S'PROKKA_00120'
p241
aS'PROKKA_00121'
p242
asS'NODE_10055_length_1040_cov_5433.65_ID_32297084'
p243
(lp244
S'PROKKA_00106'
p245
aS'PROKKA_00107'
p246
asS'NODE_1006_length_9375_cov_11.3393_ID_32382472'
p247
(lp248
S'PROKKA_00139'
p249
aS'PROKKA_00138'
p250
aS'PROKKA_00133'
p251
aS'PROKKA_00135'
p252
aS'PROKKA_00134'
p253
aS'PROKKA_00137'
p254
aS'PROKKA_00136'
p255
aS'PROKKA_00140'
p256
aS'PROKKA_00141'
p257
aS'PROKKA_00142'
p258
asS'NODE_10004_length_1045_cov_4.13867_ID_21476196'
p259
(lp260
S'PROKKA_00006'
p261
asS'NODE_10000_length_1046_cov_8584.55_ID_31838504'
p262
(lp263
S'PROKKA_00001'
p264
asS'NODE_10008_length_1045_cov_7.21289_ID_25317834'
p265
(lp266
S'PROKKA_00011'
p267
asS'NODE_10086_length_1037_cov_7441.46_ID_32155498'
p268
(lp269
S'PROKKA_00159'
p270
aS'PROKKA_00160'
p271
asS'NODE_10013_length_1044_cov_3.81232_ID_23178392'
p272
(lp273
S'PROKKA_00030'
p274
asS'NODE_10070_length_1038_cov_5.412_ID_23432086'
p275
(lp276
S'PROKKA_00143'
p277
asS'NODE_10083_length_1037_cov_8671.97_ID_31971250'
p278
(lp279
S'PROKKA_00157'
p280
asS'NODE_10016_length_1044_cov_2.78886_ID_31500530'
p281
(lp282
S'PROKKA_00034'
p283
asS'NODE_10063_length_1039_cov_3.77898_ID_31624082'
p284
(lp285
S'PROKKA_00123'
p286
asS'NODE_10065_length_1039_cov_3.16699_ID_31981984'
p287
(lp288
S'PROKKA_00126'
p289
aS'PROKKA_00125'
p290
asS'NODE_10074_length_1038_cov_2.53786_ID_31978780'
p291
(lp292
S'PROKKA_00144'
p293
asS'NODE_10001_length_1046_cov_6.98537_ID_31802808'
p294
(lp295
S'PROKKA_00002'
p296
asS'NODE_10024_length_1043_cov_3.05382_ID_25464122'
p297
(lp298
S'PROKKA_00055'
p299
asS'NODE_10052_length_1040_cov_6.90285_ID_17803312'
p300
(lp301
S'PROKKA_00103'
p302
asS'NODE_10057_length_1040_cov_5434.2_ID_32379354'
p303
(lp304
S'PROKKA_00109'
p305
aS'PROKKA_00110'
p306
asS'NODE_10043_length_1042_cov_3.9334_ID_2082314'
p307
(lp308
S'PROKKA_00083'
p309
asS'NODE_1007_length_9374_cov_47.508_ID_4175390'
p310
(lp311
S'PROKKA_00151'
p312
aS'PROKKA_00150'
p313
aS'PROKKA_00147'
p314
aS'PROKKA_00148'
p315
aS'PROKKA_00149'
p316
aS'PROKKA_00153'
p317
aS'PROKKA_00152'
p318
asS'NODE_10058_length_1039_cov_4.75737_ID_16909662'
p319
(lp320
S'PROKKA_00111'
p321
asS'NODE_10021_length_1044_cov_4.17595_ID_22130898'
p322
(lp323
S'PROKKA_00052'
p324
asS'NODE_10014_length_1044_cov_4.03715_ID_24929894'
p325
(lp326
S'PROKKA_00031'
p327
aS'PROKKA_00032'
p328
asS'NODE_10034_length_1042_cov_3.48286_ID_26266946'
p329
(lp330
S'PROKKA_00069'
p331
asS'NODE_10030_length_1043_cov_90.5753_ID_32374828'
p332
(lp333
S'PROKKA_00067'
p334
asS'NODE_10092_length_1036_cov_3.53202_ID_31982244'
p335
(lp336
S'PROKKA_00174'
p337
asS'NODE_10020_length_1044_cov_2.53275_ID_19061804'
p338
(lp339
S'PROKKA_00051'
p340
asS'NODE_10077_length_1038_cov_3.73451_ID_16038290'
p341
(lp342
S'PROKKA_00145'
p343
asS'NODE_10087_length_1036_cov_4.02167_ID_17789462'
p344
(lp345
S'PROKKA_00161'
p346
asS'NODE_10081_length_1037_cov_4.47736_ID_32256598'
p347
(lp348
S'PROKKA_00155'
p349
asS'NODE_10059_length_1039_cov_3.39784_ID_17602328'
p350
(lp351
S'PROKKA_00112'
p352
as.