(dp0
S'PROKKA_00174'
p1
S'NODE_10092_length_1036_cov_3.53202_ID_31982244'
p2
sS'PROKKA_00171'
p3
S'NODE_1008_length_9372_cov_4.56475_ID_31614648'
p4
sS'PROKKA_00170'
p5
g4
sS'PROKKA_00173'
p6
S'NODE_10091_length_1036_cov_2.81576_ID_31979742'
p7
sS'PROKKA_00172'
p8
S'NODE_10090_length_1036_cov_2.61478_ID_31832778'
p9
sS'PROKKA_00074'
p10
S'NODE_1003_length_9389_cov_13.8739_ID_22149368'
p11
sS'PROKKA_00075'
p12
g11
sS'PROKKA_00076'
p13
g11
sS'PROKKA_00077'
p14
g11
sS'PROKKA_00070'
p15
S'NODE_10035_length_1042_cov_2.50735_ID_27033596'
p16
sS'PROKKA_00071'
p17
S'NODE_10036_length_1042_cov_6.99706_ID_31944712'
p18
sS'PROKKA_00072'
p19
S'NODE_10037_length_1042_cov_4.73262_ID_31956354'
p20
sS'PROKKA_00073'
p21
S'NODE_10038_length_1042_cov_7.71988_ID_32266396'
p22
sS'PROKKA_00078'
p23
g11
sS'PROKKA_00079'
p24
g11
sS'PROKKA_00151'
p25
S'NODE_1007_length_9374_cov_47.508_ID_4175390'
p26
sS'PROKKA_00150'
p27
g26
sS'PROKKA_00169'
p28
g4
sS'PROKKA_00108'
p29
S'NODE_10056_length_1040_cov_3.80569_ID_17380774'
p30
sS'PROKKA_00109'
p31
S'NODE_10057_length_1040_cov_5434.2_ID_32379354'
p32
sS'PROKKA_00100'
p33
S'NODE_1004_length_9383_cov_8.03311_ID_32289868'
p34
sS'PROKKA_00101'
p35
S'NODE_10050_length_1041_cov_8296.23_ID_32247470'
p36
sS'PROKKA_00102'
p37
S'NODE_10051_length_1040_cov_5.50932_ID_17748052'
p38
sS'PROKKA_00103'
p39
S'NODE_10052_length_1040_cov_6.90285_ID_17803312'
p40
sS'PROKKA_00104'
p41
S'NODE_10053_length_1040_cov_1.84396_ID_27232864'
p42
sS'PROKKA_00105'
p43
S'NODE_10054_length_1040_cov_4.37193_ID_32251546'
p44
sS'PROKKA_00106'
p45
S'NODE_10055_length_1040_cov_5433.65_ID_32297084'
p46
sS'PROKKA_00107'
p47
g46
sS'PROKKA_00067'
p48
S'NODE_10030_length_1043_cov_90.5753_ID_32374828'
p49
sS'PROKKA_00066'
p50
S'NODE_1002_length_9402_cov_79.1651_ID_31608120'
p51
sS'PROKKA_00065'
p52
g51
sS'PROKKA_00064'
p53
g51
sS'PROKKA_00063'
p54
g51
sS'PROKKA_00062'
p55
S'NODE_10029_length_1043_cov_3462.69_ID_32333760'
p56
sS'PROKKA_00061'
p57
g56
sS'PROKKA_00060'
p58
S'NODE_10028_length_1043_cov_4.74364_ID_3441706'
p59
sS'PROKKA_00158'
p60
S'NODE_10084_length_1037_cov_6.95079_ID_32347130'
p61
sS'PROKKA_00069'
p62
S'NODE_10034_length_1042_cov_3.48286_ID_26266946'
p63
sS'PROKKA_00068'
p64
S'NODE_10033_length_1042_cov_3.99021_ID_25456248'
p65
sS'PROKKA_00119'
p66
S'NODE_10060_length_1039_cov_4.06287_ID_17714136'
p67
sS'PROKKA_00118'
p68
g67
sS'PROKKA_00113'
p69
S'NODE_1005_length_9378_cov_74.322_ID_31385994'
p70
sS'PROKKA_00112'
p71
S'NODE_10059_length_1039_cov_3.39784_ID_17602328'
p72
sS'PROKKA_00111'
p73
S'NODE_10058_length_1039_cov_4.75737_ID_16909662'
p74
sS'PROKKA_00110'
p75
g32
sS'PROKKA_00117'
p76
g70
sS'PROKKA_00116'
p77
g70
sS'PROKKA_00115'
p78
g70
sS'PROKKA_00114'
p79
g70
sS'PROKKA_00052'
p80
S'NODE_10021_length_1044_cov_4.17595_ID_22130898'
p81
sS'PROKKA_00053'
p82
S'NODE_10022_length_1044_cov_3.6696_ID_16040412'
p83
sS'PROKKA_00050'
p84
S'NODE_1001_length_9403_cov_6.17598_ID_32345614'
p85
sS'PROKKA_00051'
p86
S'NODE_10020_length_1044_cov_2.53275_ID_19061804'
p87
sS'PROKKA_00056'
p88
S'NODE_10025_length_1043_cov_3.71135_ID_31670126'
p89
sS'PROKKA_00057'
p90
g89
sS'PROKKA_00054'
p91
S'NODE_10023_length_1043_cov_2.40802_ID_17764480'
p92
sS'PROKKA_00055'
p93
S'NODE_10024_length_1043_cov_3.05382_ID_25464122'
p94
sS'PROKKA_00058'
p95
S'NODE_10026_length_1043_cov_3.98924_ID_31682990'
p96
sS'PROKKA_00059'
p97
g59
sS'PROKKA_00131'
p98
S'NODE_10068_length_1038_cov_3.6175_ID_3052116'
p99
sS'PROKKA_00130'
p100
g99
sS'PROKKA_00126'
p101
S'NODE_10065_length_1039_cov_3.16699_ID_31981984'
p102
sS'PROKKA_00127'
p103
S'NODE_10066_length_1039_cov_4245.8_ID_31764582'
p104
sS'PROKKA_00124'
p105
S'NODE_10064_length_1039_cov_3.66208_ID_1891288'
p106
sS'PROKKA_00125'
p107
g102
sS'PROKKA_00049'
p108
g85
sS'PROKKA_00048'
p109
g85
sS'PROKKA_00120'
p110
S'NODE_10061_length_1039_cov_3.90766_ID_26765062'
p111
sS'PROKKA_00121'
p112
g111
sS'PROKKA_00045'
p113
g85
sS'PROKKA_00044'
p114
g85
sS'PROKKA_00047'
p115
g85
sS'PROKKA_00046'
p116
g85
sS'PROKKA_00041'
p117
g85
sS'PROKKA_00040'
p118
g85
sS'PROKKA_00043'
p119
g85
sS'PROKKA_00042'
p120
g85
sS'PROKKA_00139'
p121
S'NODE_1006_length_9375_cov_11.3393_ID_32382472'
p122
sS'PROKKA_00138'
p123
g122
sS'PROKKA_00162'
p124
S'NODE_10089_length_1036_cov_2.73596_ID_22674832'
p125
sS'PROKKA_00038'
p126
S'NODE_10019_length_1044_cov_2.51222_ID_3655036'
p127
sS'PROKKA_00039'
p128
g127
sS'PROKKA_00133'
p129
g122
sS'PROKKA_00132'
p130
S'NODE_10069_length_1038_cov_3.14749_ID_17547888'
p131
sS'PROKKA_00135'
p132
g122
sS'PROKKA_00134'
p133
g122
sS'PROKKA_00137'
p134
g122
sS'PROKKA_00136'
p135
g122
sS'PROKKA_00030'
p136
S'NODE_10013_length_1044_cov_3.81232_ID_23178392'
p137
sS'PROKKA_00031'
p138
S'NODE_10014_length_1044_cov_4.03715_ID_24929894'
p139
sS'PROKKA_00032'
p140
g139
sS'PROKKA_00033'
p141
S'NODE_10015_length_1044_cov_4.05474_ID_26901864'
p142
sS'PROKKA_00034'
p143
S'NODE_10016_length_1044_cov_2.78886_ID_31500530'
p144
sS'PROKKA_00035'
p145
S'NODE_10017_length_1044_cov_4.65689_ID_17732760'
p146
sS'PROKKA_00036'
p147
S'NODE_10018_length_1044_cov_3.39492_ID_7961854'
p148
sS'PROKKA_00037'
p149
g148
sS'PROKKA_00163'
p150
g125
sS'PROKKA_00159'
p151
S'NODE_10086_length_1037_cov_7441.46_ID_32155498'
p152
sS'PROKKA_00122'
p153
S'NODE_10062_length_1039_cov_3.61395_ID_31622920'
p154
sS'PROKKA_00123'
p155
S'NODE_10063_length_1039_cov_3.77898_ID_31624082'
p156
sS'PROKKA_00029'
p157
S'NODE_10012_length_1045_cov_7708.03_ID_32192492'
p158
sS'PROKKA_00028'
p159
g158
sS'PROKKA_00023'
p160
S'NODE_1000_length_9406_cov_5.90847_ID_30197270'
p161
sS'PROKKA_00022'
p162
g161
sS'PROKKA_00021'
p163
g161
sS'PROKKA_00020'
p164
g161
sS'PROKKA_00027'
p165
S'NODE_10011_length_1045_cov_4991.81_ID_32192492'
p166
sS'PROKKA_00026'
p167
g166
sS'PROKKA_00025'
p168
S'NODE_10010_length_1045_cov_4.86328_ID_18446074'
p169
sS'PROKKA_00024'
p170
g169
sS'PROKKA_00144'
p171
S'NODE_10074_length_1038_cov_2.53786_ID_31978780'
p172
sS'PROKKA_00145'
p173
S'NODE_10077_length_1038_cov_3.73451_ID_16038290'
p174
sS'PROKKA_00146'
p175
S'NODE_10079_length_1037_cov_3.54331_ID_26198042'
p176
sS'PROKKA_00147'
p177
g26
sS'PROKKA_00140'
p178
g122
sS'PROKKA_00141'
p179
g122
sS'PROKKA_00142'
p180
g122
sS'PROKKA_00143'
p181
S'NODE_10070_length_1038_cov_5.412_ID_23432086'
p182
sS'PROKKA_00148'
p183
g26
sS'PROKKA_00149'
p184
g26
sS'PROKKA_00128'
p185
S'NODE_10067_length_1039_cov_6634.89_ID_32309532'
p186
sS'PROKKA_00129'
p187
g186
sS'PROKKA_00016'
p188
g161
sS'PROKKA_00017'
p189
g161
sS'PROKKA_00014'
p190
g161
sS'PROKKA_00015'
p191
g161
sS'PROKKA_00012'
p192
S'NODE_10009_length_1045_cov_4.27148_ID_17416000'
p193
sS'PROKKA_00013'
p194
g161
sS'PROKKA_00010'
p195
S'NODE_10007_length_1045_cov_2.61719_ID_31771990'
p196
sS'PROKKA_00011'
p197
S'NODE_10008_length_1045_cov_7.21289_ID_25317834'
p198
sS'PROKKA_00018'
p199
g161
sS'PROKKA_00019'
p200
g161
sS'PROKKA_00157'
p201
S'NODE_10083_length_1037_cov_8671.97_ID_31971250'
p202
sS'PROKKA_00156'
p203
S'NODE_10082_length_1037_cov_4.03445_ID_31924074'
p204
sS'PROKKA_00155'
p205
S'NODE_10081_length_1037_cov_4.47736_ID_32256598'
p206
sS'PROKKA_00154'
p207
S'NODE_10080_length_1037_cov_4.5561_ID_29829356'
p208
sS'PROKKA_00153'
p209
g26
sS'PROKKA_00152'
p210
g26
sS'PROKKA_00098'
p211
g34
sS'PROKKA_00099'
p212
g34
sS'PROKKA_00096'
p213
g34
sS'PROKKA_00097'
p214
g34
sS'PROKKA_00094'
p215
g34
sS'PROKKA_00095'
p216
g34
sS'PROKKA_00092'
p217
g34
sS'PROKKA_00093'
p218
g34
sS'PROKKA_00090'
p219
g34
sS'PROKKA_00091'
p220
g34
sS'PROKKA_00168'
p221
g4
sS'PROKKA_00001'
p222
S'NODE_10000_length_1046_cov_8584.55_ID_31838504'
p223
sS'PROKKA_00003'
p224
S'NODE_10002_length_1045_cov_4.6709_ID_3526058'
p225
sS'PROKKA_00002'
p226
S'NODE_10001_length_1046_cov_6.98537_ID_31802808'
p227
sS'PROKKA_00005'
p228
S'NODE_10003_length_1045_cov_2.47852_ID_17744974'
p229
sS'PROKKA_00004'
p230
g229
sS'PROKKA_00007'
p231
S'NODE_10005_length_1045_cov_3.54395_ID_24012690'
p232
sS'PROKKA_00006'
p233
S'NODE_10004_length_1045_cov_4.13867_ID_21476196'
p234
sS'PROKKA_00009'
p235
g196
sS'PROKKA_00008'
p236
S'NODE_10006_length_1045_cov_2.83301_ID_30214354'
p237
sS'PROKKA_00089'
p238
S'NODE_10049_length_1041_cov_3.26176_ID_32390674'
p239
sS'PROKKA_00088'
p240
S'NODE_10048_length_1041_cov_4.72059_ID_31935272'
p241
sS'PROKKA_00160'
p242
g152
sS'PROKKA_00161'
p243
S'NODE_10087_length_1036_cov_4.02167_ID_17789462'
p244
sS'PROKKA_00166'
p245
g4
sS'PROKKA_00167'
p246
g4
sS'PROKKA_00164'
p247
g4
sS'PROKKA_00165'
p248
g4
sS'PROKKA_00081'
p249
S'NODE_10040_length_1042_cov_7.12243_ID_32253960'
p250
sS'PROKKA_00080'
p251
g11
sS'PROKKA_00083'
p252
S'NODE_10043_length_1042_cov_3.9334_ID_2082314'
p253
sS'PROKKA_00082'
p254
S'NODE_10041_length_1042_cov_4.33105_ID_31951452'
p255
sS'PROKKA_00085'
p256
S'NODE_10045_length_1042_cov_10512.1_ID_32385568'
p257
sS'PROKKA_00084'
p258
S'NODE_10044_length_1042_cov_3326.11_ID_31667580'
p259
sS'PROKKA_00087'
p260
S'NODE_10047_length_1041_cov_3.52941_ID_22809822'
p261
sS'PROKKA_00086'
p262
S'NODE_10046_length_1041_cov_16.2363_ID_21582040'
p263
s.